target datalayout = "e-m:e-p270:32:32-p271:32:32-p272:64:64-i64:64-i128:128-f80:128-n8:16:32:64-S128"
target triple = "x86_64-pc-linux-gnu"

%struct.Bdc_Man_t_ = type { ptr, i32, i32, i32, i32, ptr, i32, i32, i32, ptr, ptr, i32, ptr, ptr, ptr, ptr, ptr, ptr, ptr, %struct.Bdc_Isf_t_, ptr, %struct.Bdc_Isf_t_, ptr, %struct.Bdc_Isf_t_, ptr, %struct.Bdc_Isf_t_, ptr, i32, i32, i32, i32, i32, i32, i32, i64, i64, i64, i64, i64 }
%struct.Bdc_Isf_t_ = type { i32, i32, ptr, ptr }
%struct.Bdc_Par_t_ = type { i32, i32, i32 }
%struct.timespec = type { i64, i64 }

; Function Attrs: inlinehint nounwind uwtable
define internal i64 @Abc_Clock() #3 {
  %1 = alloca i64, align 8
  %2 = alloca %struct.timespec, align 8
  %3 = alloca i32, align 4
  %4 = alloca i64, align 8
  call void @llvm.lifetime.start.p0(i64 16, ptr %2) #7
  %5 = call i32 @clock_gettime(i32 noundef 1, ptr noundef %2) #7
  %6 = icmp slt i32 %5, 0
  br i1 %6, label %7, label %8

7:                                                ; preds = %0
  store i64 -1, ptr %1, align 8
  store i32 1, ptr %3, align 4
  br label %19

8:                                                ; preds = %0
  call void @llvm.lifetime.start.p0(i64 8, ptr %4) #7
  %9 = getelementptr inbounds nuw %struct.timespec, ptr %2, i32 0, i32 0
  %10 = load i64, ptr %9, align 8, !tbaa !88
  %11 = mul nsw i64 %10, 1000000
  store i64 %11, ptr %4, align 8, !tbaa !10
  %12 = getelementptr inbounds nuw %struct.timespec, ptr %2, i32 0, i32 1
  %13 = load i64, ptr %12, align 8, !tbaa !90
  %14 = mul nsw i64 %13, 1000000
  %15 = sdiv i64 %14, 1000000000
  %16 = load i64, ptr %4, align 8, !tbaa !10
  %17 = add nsw i64 %16, %15
  store i64 %17, ptr %4, align 8, !tbaa !10
  %18 = load i64, ptr %4, align 8, !tbaa !10
  store i64 %18, ptr %1, align 8
  store i32 1, ptr %3, align 4
  call void @llvm.lifetime.end.p0(i64 8, ptr %4) #7
  br label %19

19:                                               ; preds = %8, %7
  call void @llvm.lifetime.end.p0(i64 16, ptr %2) #7
  %20 = load i64, ptr %1, align 8
  ret i64 %20
}

; Function Attrs: nounwind uwtable
define void @Bdc_SuppMinimize(ptr noundef %0, ptr noundef %1) #0 {
  %3 = alloca ptr, align 8
  %4 = alloca ptr, align 8
  %5 = alloca i32, align 4
  %6 = alloca i64, align 8
  store ptr %0, ptr %3, align 8, !tbaa !3
  store ptr %1, ptr %4, align 8, !tbaa !8
  call void @llvm.lifetime.start.p0(i64 4, ptr %5) #7
  call void @llvm.lifetime.start.p0(i64 8, ptr %6) #7
  store i64 0, ptr %6, align 8, !tbaa !10
  %7 = load ptr, ptr %3, align 8, !tbaa !3
  %8 = getelementptr inbounds nuw %struct.Bdc_Man_t_, ptr %7, i32 0, i32 0
  %9 = load ptr, ptr %8, align 8, !tbaa !12
  %10 = getelementptr inbounds nuw %struct.Bdc_Par_t_, ptr %9, i32 0, i32 1
  %11 = load i32, ptr %10, align 4, !tbaa !22
  %12 = icmp ne i32 %11, 0
  br i1 %12, label %13, label %15

13:                                               ; preds = %2
  %14 = call i64 @Abc_Clock()
  store i64 %14, ptr %6, align 8, !tbaa !10
  br label %15

15:                                               ; preds = %13, %2
  %16 = load ptr, ptr %4, align 8, !tbaa !8
  %17 = getelementptr inbounds nuw %struct.Bdc_Isf_t_, ptr %16, i32 0, i32 0
  store i32 0, ptr %17, align 8, !tbaa !27
  store i32 0, ptr %5, align 4, !tbaa !28
  br label %18

18:                                               ; preds = %80, %15
  %19 = load i32, ptr %5, align 4, !tbaa !28
  %20 = load ptr, ptr %3, align 8, !tbaa !3
  %21 = getelementptr inbounds nuw %struct.Bdc_Man_t_, ptr %20, i32 0, i32 1
  %22 = load i32, ptr %21, align 8, !tbaa !25
  %23 = icmp slt i32 %19, %22
  br i1 %23, label %24, label %83

24:                                               ; preds = %18
  %25 = load ptr, ptr %4, align 8, !tbaa !8
  %26 = getelementptr inbounds nuw %struct.Bdc_Isf_t_, ptr %25, i32 0, i32 2
  %27 = load ptr, ptr %26, align 8, !tbaa !24
  %28 = load ptr, ptr %3, align 8, !tbaa !3
  %29 = getelementptr inbounds nuw %struct.Bdc_Man_t_, ptr %28, i32 0, i32 1
  %30 = load i32, ptr %29, align 8, !tbaa !25
  %31 = load i32, ptr %5, align 4, !tbaa !28
  %32 = call i32 @Kit_TruthVarInSupport(ptr noundef %27, i32 noundef %30, i32 noundef %31)
  %33 = icmp ne i32 %32, 0
  br i1 %33, label %45, label %34

34:                                               ; preds = %24
  %35 = load ptr, ptr %4, align 8, !tbaa !8
  %36 = getelementptr inbounds nuw %struct.Bdc_Isf_t_, ptr %35, i32 0, i32 3
  %37 = load ptr, ptr %36, align 8, !tbaa !26
  %38 = load ptr, ptr %3, align 8, !tbaa !3
  %39 = getelementptr inbounds nuw %struct.Bdc_Man_t_, ptr %38, i32 0, i32 1
  %40 = load i32, ptr %39, align 8, !tbaa !25
  %41 = load i32, ptr %5, align 4, !tbaa !28
  %42 = call i32 @Kit_TruthVarInSupport(ptr noundef %37, i32 noundef %40, i32 noundef %41)
  %43 = icmp ne i32 %42, 0
  br i1 %43, label %45, label %44

44:                                               ; preds = %34
  br label %80

45:                                               ; preds = %34, %24
  %46 = load ptr, ptr %4, align 8, !tbaa !8
  %47 = getelementptr inbounds nuw %struct.Bdc_Isf_t_, ptr %46, i32 0, i32 2
  %48 = load ptr, ptr %47, align 8, !tbaa !24
  %49 = load ptr, ptr %4, align 8, !tbaa !8
  %50 = getelementptr inbounds nuw %struct.Bdc_Isf_t_, ptr %49, i32 0, i32 3
  %51 = load ptr, ptr %50, align 8, !tbaa !26
  %52 = load ptr, ptr %3, align 8, !tbaa !3
  %53 = getelementptr inbounds nuw %struct.Bdc_Man_t_, ptr %52, i32 0, i32 1
  %54 = load i32, ptr %53, align 8, !tbaa !25
  %55 = load i32, ptr %5, align 4, !tbaa !28
  %56 = call i32 @Kit_TruthVarIsVacuous(ptr noundef %48, ptr noundef %51, i32 noundef %54, i32 noundef %55)
  %57 = icmp ne i32 %56, 0
  br i1 %57, label %58, label %73

58:                                               ; preds = %45
  %59 = load ptr, ptr %4, align 8, !tbaa !8
  %60 = getelementptr inbounds nuw %struct.Bdc_Isf_t_, ptr %59, i32 0, i32 2
  %61 = load ptr, ptr %60, align 8, !tbaa !24
  %62 = load ptr, ptr %3, align 8, !tbaa !3
  %63 = getelementptr inbounds nuw %struct.Bdc_Man_t_, ptr %62, i32 0, i32 1
  %64 = load i32, ptr %63, align 8, !tbaa !25
  %65 = load i32, ptr %5, align 4, !tbaa !28
  call void @Kit_TruthExist(ptr noundef %61, i32 noundef %64, i32 noundef %65)
  %66 = load ptr, ptr %4, align 8, !tbaa !8
  %67 = getelementptr inbounds nuw %struct.Bdc_Isf_t_, ptr %66, i32 0, i32 3
  %68 = load ptr, ptr %67, align 8, !tbaa !26
  %69 = load ptr, ptr %3, align 8, !tbaa !3
  %70 = getelementptr inbounds nuw %struct.Bdc_Man_t_, ptr %69, i32 0, i32 1
  %71 = load i32, ptr %70, align 8, !tbaa !25
  %72 = load i32, ptr %5, align 4, !tbaa !28
  call void @Kit_TruthExist(ptr noundef %68, i32 noundef %71, i32 noundef %72)
  br label %80

73:                                               ; preds = %45
  %74 = load i32, ptr %5, align 4, !tbaa !28
  %75 = shl i32 1, %74
  %76 = load ptr, ptr %4, align 8, !tbaa !8
  %77 = getelementptr inbounds nuw %struct.Bdc_Isf_t_, ptr %76, i32 0, i32 0
  %78 = load i32, ptr %77, align 8, !tbaa !27
  %79 = or i32 %78, %75
  store i32 %79, ptr %77, align 8, !tbaa !27
  br label %80

80:                                               ; preds = %73, %58, %44
  %81 = load i32, ptr %5, align 4, !tbaa !28
  %82 = add nsw i32 %81, 1
  store i32 %82, ptr %5, align 4, !tbaa !28
  br label %18, !llvm.loop !37

83:                                               ; preds = %18
  %84 = load ptr, ptr %3, align 8, !tbaa !3
  %85 = getelementptr inbounds nuw %struct.Bdc_Man_t_, ptr %84, i32 0, i32 0
  %86 = load ptr, ptr %85, align 8, !tbaa !12
  %87 = getelementptr inbounds nuw %struct.Bdc_Par_t_, ptr %86, i32 0, i32 1
  %88 = load i32, ptr %87, align 4, !tbaa !22
  %89 = icmp ne i32 %88, 0
  br i1 %89, label %90, label %98

90:                                               ; preds = %83
  %91 = call i64 @Abc_Clock()
  %92 = load i64, ptr %6, align 8, !tbaa !10
  %93 = sub nsw i64 %91, %92
  %94 = load ptr, ptr %3, align 8, !tbaa !3
  %95 = getelementptr inbounds nuw %struct.Bdc_Man_t_, ptr %94, i32 0, i32 37
  %96 = load i64, ptr %95, align 8, !tbaa !33
  %97 = add nsw i64 %96, %93
  store i64 %97, ptr %95, align 8, !tbaa !33
  br label %98

98:                                               ; preds = %90, %83
  call void @llvm.lifetime.end.p0(i64 8, ptr %6) #7
  call void @llvm.lifetime.end.p0(i64 4, ptr %5) #7
  ret void
}