; Function Attrs: nounwind uwtable
define void @Bdc_SuppMinimize(ptr noundef captures(none) %0, ptr noundef captures(none) initializes((0, 4)) %1) local_unnamed_addr #0 {
  %3 = alloca %struct.timespec, align 8
  %4 = alloca %struct.timespec, align 8
  %5 = load ptr, ptr %0, align 8, !tbaa !3
  %6 = getelementptr inbounds nuw i8, ptr %5, i64 4
  %7 = load i32, ptr %6, align 4, !tbaa !18
  %.not = icmp eq i32 %7, 0
  br i1 %.not, label %15, label %8

8:                                                ; preds = %2
  call void @llvm.lifetime.start.p0(i64 16, ptr nonnull %4) #7
  %9 = call i32 @clock_gettime(i32 noundef 1, ptr noundef nonnull %4) #7
  %10 = icmp slt i32 %9, 0
  br i1 %10, label %Abc_Clock.exit, label %11

11:                                               ; preds = %8
  %12 = load i64, ptr %4, align 8, !tbaa !20
  %.neg33 = mul i64 %12, -1000000
  %13 = getelementptr inbounds nuw i8, ptr %4, i64 8
  %14 = load i64, ptr %13, align 8, !tbaa !22
  %.neg = sdiv i64 %14, -1000
  %.neg34 = add i64 %.neg, %.neg33
  br label %Abc_Clock.exit

Abc_Clock.exit:                                   ; preds = %8, %11
  %.0.i.neg = phi i64 [ %.neg34, %11 ], [ 1, %8 ]
  call void @llvm.lifetime.end.p0(i64 16, ptr nonnull %4) #7
  br label %15

15:                                               ; preds = %Abc_Clock.exit, %2
  %.0.neg = phi i64 [ %.0.i.neg, %Abc_Clock.exit ], [ 0, %2 ]
  store i32 0, ptr %1, align 8, !tbaa !26
  %16 = getelementptr inbounds nuw i8, ptr %0, i64 8
  %17 = load i32, ptr %16, align 8, !tbaa !24
  %18 = icmp sgt i32 %17, 0
  br i1 %18, label %.lr.ph, label %._crit_edge

.lr.ph:                                           ; preds = %15
  %19 = getelementptr inbounds nuw i8, ptr %1, i64 8
  %20 = getelementptr inbounds nuw i8, ptr %1, i64 16
  br label %21

21:                                               ; preds = %.lr.ph, %43
  %22 = phi i32 [ %17, %.lr.ph ], [ %45, %43 ]
  %.02535 = phi i32 [ 0, %.lr.ph ], [ %44, %43 ]
  %23 = load ptr, ptr %19, align 8, !tbaa !23
  %24 = call i32 @Kit_TruthVarInSupport(ptr noundef %23, i32 noundef %22, i32 noundef %.02535) #7
  %.not28 = icmp eq i32 %24, 0
  br i1 %.not28, label %25, label %29

25:                                               ; preds = %21
  %26 = load ptr, ptr %20, align 8, !tbaa !25
  %27 = load i32, ptr %16, align 8, !tbaa !24
  %28 = call i32 @Kit_TruthVarInSupport(ptr noundef %26, i32 noundef %27, i32 noundef %.02535) #7
  %.not29 = icmp eq i32 %28, 0
  br i1 %.not29, label %43, label %29

29:                                               ; preds = %25, %21
  %30 = load ptr, ptr %19, align 8, !tbaa !23
  %31 = load ptr, ptr %20, align 8, !tbaa !25
  %32 = load i32, ptr %16, align 8, !tbaa !24
  %33 = call i32 @Kit_TruthVarIsVacuous(ptr noundef %30, ptr noundef %31, i32 noundef %32, i32 noundef %.02535) #7
  %.not30 = icmp eq i32 %33, 0
  br i1 %.not30, label %39, label %34

34:                                               ; preds = %29
  %35 = load ptr, ptr %19, align 8, !tbaa !23
  %36 = load i32, ptr %16, align 8, !tbaa !24
  call void @Kit_TruthExist(ptr noundef %35, i32 noundef %36, i32 noundef %.02535) #7
  %37 = load ptr, ptr %20, align 8, !tbaa !25
  %38 = load i32, ptr %16, align 8, !tbaa !24
  call void @Kit_TruthExist(ptr noundef %37, i32 noundef %38, i32 noundef %.02535) #7
  br label %43

39:                                               ; preds = %29
  %40 = shl nuw i32 1, %.02535
  %41 = load i32, ptr %1, align 8, !tbaa !26
  %42 = or i32 %41, %40
  store i32 %42, ptr %1, align 8, !tbaa !26
  br label %43

43:                                               ; preds = %25, %39, %34
  %44 = add nuw nsw i32 %.02535, 1
  %45 = load i32, ptr %16, align 8, !tbaa !24
  %46 = icmp slt i32 %44, %45
  br i1 %46, label %21, label %._crit_edge, !llvm.loop !35

._crit_edge:                                      ; preds = %43, %15
  %47 = load ptr, ptr %0, align 8, !tbaa !3
  %48 = getelementptr inbounds nuw i8, ptr %47, i64 4
  %49 = load i32, ptr %48, align 4, !tbaa !18
  %.not27 = icmp eq i32 %49, 0
  br i1 %.not27, label %64, label %50

50:                                               ; preds = %._crit_edge
  call void @llvm.lifetime.start.p0(i64 16, ptr nonnull %3) #7
  %51 = call i32 @clock_gettime(i32 noundef 1, ptr noundef nonnull %3) #7
  %52 = icmp slt i32 %51, 0
  br i1 %52, label %Abc_Clock.exit32, label %53

53:                                               ; preds = %50
  %54 = load i64, ptr %3, align 8, !tbaa !20
  %55 = mul nsw i64 %54, 1000000
  %56 = getelementptr inbounds nuw i8, ptr %3, i64 8
  %57 = load i64, ptr %56, align 8, !tbaa !22
  %58 = sdiv i64 %57, 1000
  %59 = add nsw i64 %58, %55
  br label %Abc_Clock.exit32

Abc_Clock.exit32:                                 ; preds = %50, %53
  %.0.i31 = phi i64 [ %59, %53 ], [ -1, %50 ]
  call void @llvm.lifetime.end.p0(i64 16, ptr nonnull %3) #7
  %60 = add i64 %.0.i31, %.0.neg
  %61 = getelementptr inbounds nuw i8, ptr %0, i64 312
  %62 = load i64, ptr %61, align 8, !tbaa !34
  %63 = add nsw i64 %60, %62
  store i64 %63, ptr %61, align 8, !tbaa !34
  br label %64

64:                                               ; preds = %Abc_Clock.exit32, %._crit_edge
  ret void
}